target datalayout = "e-m:e-p270:32:32-p271:32:32-p272:64:64-i64:64-i128:128-f80:128-n8:16:32:64-S128"
target triple = "x86_64-pc-linux-gnu"

%struct.quic_fifd_st = type { ptr, ptr, ptr, ptr, ptr, ptr, ptr, ptr, ptr, ptr, ptr, ptr, ptr }
%struct.quic_txpim_pkt_st = type { %struct.ossl_ackm_tx_pkt_st, ptr, ptr, i8, i8 }
%struct.ossl_ackm_tx_pkt_st = type { i64, i64, %struct.OSSL_TIME, i64, i8, ptr, ptr, ptr, ptr, %struct.anon, ptr, ptr }
%struct.OSSL_TIME = type { i64 }
%struct.anon = type { ptr, ptr }
%struct.quic_cfq_item_st = type { ptr, ptr }
%struct.quic_txpim_chunk_st = type { i64, i64, i64, i8 }

; Function Attrs: inlinehint nounwind uwtable
define internal void @ossl_list_tx_history_init_elem(ptr noundef %0) #2 {
  %2 = alloca ptr, align 8
  store ptr %0, ptr %2, align 8, !tbaa !68
  %3 = load ptr, ptr %2, align 8, !tbaa !68
  %4 = getelementptr inbounds nuw %struct.ossl_ackm_tx_pkt_st, ptr %3, i32 0, i32 9
  call void @llvm.memset.p0.i64(ptr align 8 %4, i8 0, i64 16, i1 false)
  ret void
}

; Function Attrs: nounwind uwtable
define i32 @ossl_quic_fifd_pkt_commit(ptr noundef %0, ptr noundef %1) #0 {
  %3 = alloca i32, align 4
  %4 = alloca ptr, align 8
  %5 = alloca ptr, align 8
  %6 = alloca ptr, align 8
  %7 = alloca ptr, align 8
  %8 = alloca i64, align 8
  %9 = alloca i64, align 8
  %10 = alloca ptr, align 8
  %11 = alloca i32, align 4
  store ptr %0, ptr %4, align 8, !tbaa !3
  store ptr %1, ptr %5, align 8, !tbaa !29
  call void @llvm.lifetime.start.p0(i64 8, ptr %6) #5
  call void @llvm.lifetime.start.p0(i64 8, ptr %7) #5
  call void @llvm.lifetime.start.p0(i64 8, ptr %8) #5
  call void @llvm.lifetime.start.p0(i64 8, ptr %9) #5
  call void @llvm.lifetime.start.p0(i64 8, ptr %10) #5
  %12 = load ptr, ptr %4, align 8, !tbaa !3
  %13 = load ptr, ptr %5, align 8, !tbaa !29
  %14 = getelementptr inbounds nuw %struct.quic_txpim_pkt_st, ptr %13, i32 0, i32 2
  store ptr %12, ptr %14, align 8, !tbaa !31
  %15 = load ptr, ptr %5, align 8, !tbaa !29
  %16 = getelementptr inbounds nuw %struct.quic_txpim_pkt_st, ptr %15, i32 0, i32 0
  %17 = getelementptr inbounds nuw %struct.ossl_ackm_tx_pkt_st, ptr %16, i32 0, i32 5
  store ptr @on_lost, ptr %17, align 8, !tbaa !40
  %18 = load ptr, ptr %5, align 8, !tbaa !29
  %19 = getelementptr inbounds nuw %struct.quic_txpim_pkt_st, ptr %18, i32 0, i32 0
  %20 = getelementptr inbounds nuw %struct.ossl_ackm_tx_pkt_st, ptr %19, i32 0, i32 6
  store ptr @on_acked, ptr %20, align 8, !tbaa !41
  %21 = load ptr, ptr %5, align 8, !tbaa !29
  %22 = getelementptr inbounds nuw %struct.quic_txpim_pkt_st, ptr %21, i32 0, i32 0
  %23 = getelementptr inbounds nuw %struct.ossl_ackm_tx_pkt_st, ptr %22, i32 0, i32 7
  store ptr @on_discarded, ptr %23, align 8, !tbaa !42
  %24 = load ptr, ptr %5, align 8, !tbaa !29
  %25 = load ptr, ptr %5, align 8, !tbaa !29
  %26 = getelementptr inbounds nuw %struct.quic_txpim_pkt_st, ptr %25, i32 0, i32 0
  %27 = getelementptr inbounds nuw %struct.ossl_ackm_tx_pkt_st, ptr %26, i32 0, i32 8
  store ptr %24, ptr %27, align 8, !tbaa !43
  %28 = load ptr, ptr %5, align 8, !tbaa !29
  %29 = getelementptr inbounds nuw %struct.quic_txpim_pkt_st, ptr %28, i32 0, i32 0
  call void @ossl_list_tx_history_init_elem(ptr noundef %29)
  %30 = load ptr, ptr %5, align 8, !tbaa !29
  %31 = getelementptr inbounds nuw %struct.quic_txpim_pkt_st, ptr %30, i32 0, i32 0
  %32 = getelementptr inbounds nuw %struct.ossl_ackm_tx_pkt_st, ptr %31, i32 0, i32 11
  store ptr null, ptr %32, align 8, !tbaa !44
  %33 = load ptr, ptr %5, align 8, !tbaa !29
  %34 = getelementptr inbounds nuw %struct.quic_txpim_pkt_st, ptr %33, i32 0, i32 0
  %35 = getelementptr inbounds nuw %struct.ossl_ackm_tx_pkt_st, ptr %34, i32 0, i32 10
  store ptr null, ptr %35, align 8, !tbaa !45
  %36 = load ptr, ptr %5, align 8, !tbaa !29
  %37 = getelementptr inbounds nuw %struct.quic_txpim_pkt_st, ptr %36, i32 0, i32 1
  %38 = load ptr, ptr %37, align 8, !tbaa !46
  store ptr %38, ptr %6, align 8, !tbaa !47
  br label %39

39:                                               ; preds = %47, %2
  %40 = load ptr, ptr %6, align 8, !tbaa !47
  %41 = icmp ne ptr %40, null
  br i1 %41, label %42, label %51

42:                                               ; preds = %39
  %43 = load ptr, ptr %4, align 8, !tbaa !3
  %44 = getelementptr inbounds nuw %struct.quic_fifd_st, ptr %43, i32 0, i32 0
  %45 = load ptr, ptr %44, align 8, !tbaa !15
  %46 = load ptr, ptr %6, align 8, !tbaa !47
  call void @ossl_quic_cfq_mark_tx(ptr noundef %45, ptr noundef %46)
  br label %47

47:                                               ; preds = %42
  %48 = load ptr, ptr %6, align 8, !tbaa !47
  %49 = getelementptr inbounds nuw %struct.quic_cfq_item_st, ptr %48, i32 0, i32 1
  %50 = load ptr, ptr %49, align 8, !tbaa !48
  store ptr %50, ptr %6, align 8, !tbaa !47
  br label %39, !llvm.loop !50

51:                                               ; preds = %39
  %52 = load ptr, ptr %5, align 8, !tbaa !29
  %53 = call ptr @ossl_quic_txpim_pkt_get_chunks(ptr noundef %52)
  store ptr %53, ptr %7, align 8, !tbaa !52
  %54 = load ptr, ptr %5, align 8, !tbaa !29
  %55 = call i64 @ossl_quic_txpim_pkt_get_num_chunks(ptr noundef %54)
  store i64 %55, ptr %9, align 8, !tbaa !54
  store i64 0, ptr %8, align 8, !tbaa !54
  br label %56

56:                                               ; preds = %130, %51
  %57 = load i64, ptr %8, align 8, !tbaa !54
  %58 = load i64, ptr %9, align 8, !tbaa !54
  %59 = icmp ult i64 %57, %58
  br i1 %59, label %60, label %133

60:                                               ; preds = %56
  %61 = load ptr, ptr %4, align 8, !tbaa !3
  %62 = getelementptr inbounds nuw %struct.quic_fifd_st, ptr %61, i32 0, i32 3
  %63 = load ptr, ptr %62, align 8, !tbaa !19
  %64 = load ptr, ptr %7, align 8, !tbaa !52
  %65 = load i64, ptr %8, align 8, !tbaa !54
  %66 = getelementptr inbounds nuw %struct.quic_txpim_chunk_st, ptr %64, i64 %65
  %67 = getelementptr inbounds nuw %struct.quic_txpim_chunk_st, ptr %66, i32 0, i32 0
  %68 = load i64, ptr %67, align 8, !tbaa !55
  %69 = load ptr, ptr %5, align 8, !tbaa !29
  %70 = getelementptr inbounds nuw %struct.quic_txpim_pkt_st, ptr %69, i32 0, i32 0
  %71 = getelementptr inbounds nuw %struct.ossl_ackm_tx_pkt_st, ptr %70, i32 0, i32 4
  %72 = load i8, ptr %71, align 8
  %73 = and i8 %72, 3
  %74 = zext i8 %73 to i32
  %75 = load ptr, ptr %4, align 8, !tbaa !3
  %76 = getelementptr inbounds nuw %struct.quic_fifd_st, ptr %75, i32 0, i32 4
  %77 = load ptr, ptr %76, align 8, !tbaa !20
  %78 = call ptr %63(i64 noundef %68, i32 noundef %74, ptr noundef %77)
  store ptr %78, ptr %10, align 8, !tbaa !57
  %79 = load ptr, ptr %10, align 8, !tbaa !57
  %80 = icmp eq ptr %79, null
  br i1 %80, label %81, label %82

81:                                               ; preds = %60
  br label %130

82:                                               ; preds = %60
  %83 = load ptr, ptr %7, align 8, !tbaa !52
  %84 = load i64, ptr %8, align 8, !tbaa !54
  %85 = getelementptr inbounds nuw %struct.quic_txpim_chunk_st, ptr %83, i64 %84
  %86 = getelementptr inbounds nuw %struct.quic_txpim_chunk_st, ptr %85, i32 0, i32 2
  %87 = load i64, ptr %86, align 8, !tbaa !59
  %88 = load ptr, ptr %7, align 8, !tbaa !52
  %89 = load i64, ptr %8, align 8, !tbaa !54
  %90 = getelementptr inbounds nuw %struct.quic_txpim_chunk_st, ptr %88, i64 %89
  %91 = getelementptr inbounds nuw %struct.quic_txpim_chunk_st, ptr %90, i32 0, i32 1
  %92 = load i64, ptr %91, align 8, !tbaa !60
  %93 = icmp uge i64 %87, %92
  br i1 %93, label %94, label %109

94:                                               ; preds = %82
  %95 = load ptr, ptr %10, align 8, !tbaa !57
  %96 = load ptr, ptr %7, align 8, !tbaa !52
  %97 = load i64, ptr %8, align 8, !tbaa !54
  %98 = getelementptr inbounds nuw %struct.quic_txpim_chunk_st, ptr %96, i64 %97
  %99 = getelementptr inbounds nuw %struct.quic_txpim_chunk_st, ptr %98, i32 0, i32 1
  %100 = load i64, ptr %99, align 8, !tbaa !60
  %101 = load ptr, ptr %7, align 8, !tbaa !52
  %102 = load i64, ptr %8, align 8, !tbaa !54
  %103 = getelementptr inbounds nuw %struct.quic_txpim_chunk_st, ptr %101, i64 %102
  %104 = getelementptr inbounds nuw %struct.quic_txpim_chunk_st, ptr %103, i32 0, i32 2
  %105 = load i64, ptr %104, align 8, !tbaa !59
  %106 = call i32 @ossl_quic_sstream_mark_transmitted(ptr noundef %95, i64 noundef %100, i64 noundef %105)
  %107 = icmp ne i32 %106, 0
  br i1 %107, label %109, label %108

108:                                              ; preds = %94
  store i32 0, ptr %3, align 4
  store i32 1, ptr %11, align 4
  br label %140

109:                                              ; preds = %94, %82
  %110 = load ptr, ptr %7, align 8, !tbaa !52
  %111 = load i64, ptr %8, align 8, !tbaa !54
  %112 = getelementptr inbounds nuw %struct.quic_txpim_chunk_st, ptr %110, i64 %111
  %113 = getelementptr inbounds nuw %struct.quic_txpim_chunk_st, ptr %112, i32 0, i32 3
  %114 = load i8, ptr %113, align 8
  %115 = and i8 %114, 1
  %116 = zext i8 %115 to i32
  %117 = icmp ne i32 %116, 0
  br i1 %117, label %118, label %129

118:                                              ; preds = %109
  %119 = load ptr, ptr %10, align 8, !tbaa !57
  %120 = load ptr, ptr %7, align 8, !tbaa !52
  %121 = load i64, ptr %8, align 8, !tbaa !54
  %122 = getelementptr inbounds nuw %struct.quic_txpim_chunk_st, ptr %120, i64 %121
  %123 = getelementptr inbounds nuw %struct.quic_txpim_chunk_st, ptr %122, i32 0, i32 2
  %124 = load i64, ptr %123, align 8, !tbaa !59
  %125 = add i64 %124, 1
  %126 = call i32 @ossl_quic_sstream_mark_transmitted_fin(ptr noundef %119, i64 noundef %125)
  %127 = icmp ne i32 %126, 0
  br i1 %127, label %129, label %128

128:                                              ; preds = %118
  store i32 0, ptr %3, align 4
  store i32 1, ptr %11, align 4
  br label %140

129:                                              ; preds = %118, %109
  br label %130

130:                                              ; preds = %129, %81
  %131 = load i64, ptr %8, align 8, !tbaa !54
  %132 = add i64 %131, 1
  store i64 %132, ptr %8, align 8, !tbaa !54
  br label %56, !llvm.loop !61

133:                                              ; preds = %56
  %134 = load ptr, ptr %4, align 8, !tbaa !3
  %135 = getelementptr inbounds nuw %struct.quic_fifd_st, ptr %134, i32 0, i32 1
  %136 = load ptr, ptr %135, align 8, !tbaa !17
  %137 = load ptr, ptr %5, align 8, !tbaa !29
  %138 = getelementptr inbounds nuw %struct.quic_txpim_pkt_st, ptr %137, i32 0, i32 0
  %139 = call i32 @ossl_ackm_on_tx_packet(ptr noundef %136, ptr noundef %138)
  store i32 %139, ptr %3, align 4
  store i32 1, ptr %11, align 4
  br label %140

140:                                              ; preds = %133, %128, %108
  call void @llvm.lifetime.end.p0(i64 8, ptr %10) #5
  call void @llvm.lifetime.end.p0(i64 8, ptr %9) #5
  call void @llvm.lifetime.end.p0(i64 8, ptr %8) #5
  call void @llvm.lifetime.end.p0(i64 8, ptr %7) #5
  call void @llvm.lifetime.end.p0(i64 8, ptr %6) #5
  %141 = load i32, ptr %3, align 4
  ret i32 %141
}