; Function Attrs: nounwind uwtable
define i32 @ossl_quic_fifd_pkt_commit(ptr noundef %0, ptr noundef initializes((40, 64), (112, 120)) %1) local_unnamed_addr #2 {
  %3 = getelementptr inbounds nuw i8, ptr %1, i64 112
  store ptr %0, ptr %3, align 8, !tbaa !23
  %4 = getelementptr inbounds nuw i8, ptr %1, i64 40
  store ptr @on_lost, ptr %4, align 8, !tbaa !33
  %5 = getelementptr inbounds nuw i8, ptr %1, i64 48
  store ptr @on_acked, ptr %5, align 8, !tbaa !34
  %6 = getelementptr inbounds nuw i8, ptr %1, i64 56
  store ptr @on_discarded, ptr %6, align 8, !tbaa !35
  %7 = getelementptr inbounds nuw i8, ptr %1, i64 64
  store ptr %1, ptr %7, align 8, !tbaa !36
  %8 = getelementptr inbounds nuw i8, ptr %1, i64 72
  %9 = getelementptr inbounds nuw i8, ptr %1, i64 104
  tail call void @llvm.memset.p0.i64(ptr noundef nonnull align 8 dereferenceable(32) %8, i8 0, i64 32, i1 false)
  %.04251 = load ptr, ptr %9, align 8, !tbaa !37
  %.not52 = icmp eq ptr %.04251, null
  br i1 %.not52, label %._crit_edge, label %.lr.ph

.lr.ph:                                           ; preds = %2, %.lr.ph
  %.04253 = phi ptr [ %.042, %.lr.ph ], [ %.04251, %2 ]
  %10 = load ptr, ptr %0, align 8, !tbaa !3
  tail call void @ossl_quic_cfq_mark_tx(ptr noundef %10, ptr noundef nonnull %.04253) #5
  %11 = getelementptr inbounds nuw i8, ptr %.04253, i64 8
  %.042 = load ptr, ptr %11, align 8, !tbaa !37
  %.not = icmp eq ptr %.042, null
  br i1 %.not, label %._crit_edge, label %.lr.ph, !llvm.loop !38

._crit_edge:                                      ; preds = %.lr.ph, %2
  %12 = tail call ptr @ossl_quic_txpim_pkt_get_chunks(ptr noundef %1) #5
  %13 = tail call i64 @ossl_quic_txpim_pkt_get_num_chunks(ptr noundef %1) #5
  %.not58 = icmp eq i64 %13, 0
  br i1 %.not58, label %._crit_edge57, label %.lr.ph56

.lr.ph56:                                         ; preds = %._crit_edge
  %14 = getelementptr inbounds nuw i8, ptr %0, i64 24
  %15 = getelementptr inbounds nuw i8, ptr %1, i64 32
  %16 = getelementptr inbounds nuw i8, ptr %0, i64 32
  br label %17

17:                                               ; preds = %.lr.ph56, %42
  %.04354 = phi i64 [ 0, %.lr.ph56 ], [ %43, %42 ]
  %18 = load ptr, ptr %14, align 8, !tbaa !13
  %19 = getelementptr inbounds nuw %struct.quic_txpim_chunk_st, ptr %12, i64 %.04354
  %20 = load i64, ptr %19, align 8, !tbaa !40
  %21 = load i8, ptr %15, align 8
  %22 = and i8 %21, 3
  %23 = zext nneg i8 %22 to i32
  %24 = load ptr, ptr %16, align 8, !tbaa !14
  %25 = tail call ptr %18(i64 noundef %20, i32 noundef %23, ptr noundef %24) #5
  %26 = icmp eq ptr %25, null
  br i1 %26, label %42, label %27

27:                                               ; preds = %17
  %28 = getelementptr inbounds nuw i8, ptr %19, i64 16
  %29 = load i64, ptr %28, align 8, !tbaa !42
  %30 = getelementptr inbounds nuw i8, ptr %19, i64 8
  %31 = load i64, ptr %30, align 8, !tbaa !43
  %.not47 = icmp ult i64 %29, %31
  br i1 %.not47, label %34, label %32

32:                                               ; preds = %27
  %33 = tail call i32 @ossl_quic_sstream_mark_transmitted(ptr noundef nonnull %25, i64 noundef %31, i64 noundef %29) #5
  %.not48 = icmp eq i32 %33, 0
  br i1 %.not48, label %.loopexit, label %34

34:                                               ; preds = %32, %27
  %35 = getelementptr inbounds nuw i8, ptr %19, i64 24
  %36 = load i8, ptr %35, align 8
  %37 = and i8 %36, 1
  %.not49 = icmp eq i8 %37, 0
  br i1 %.not49, label %42, label %38

38:                                               ; preds = %34
  %39 = load i64, ptr %28, align 8, !tbaa !42
  %40 = add i64 %39, 1
  %41 = tail call i32 @ossl_quic_sstream_mark_transmitted_fin(ptr noundef nonnull %25, i64 noundef %40) #5
  %.not50 = icmp eq i32 %41, 0
  br i1 %.not50, label %.loopexit, label %42

42:                                               ; preds = %34, %38, %17
  %43 = add nuw i64 %.04354, 1
  %exitcond.not = icmp eq i64 %43, %13
  br i1 %exitcond.not, label %._crit_edge57, label %17, !llvm.loop !44

._crit_edge57:                                    ; preds = %42, %._crit_edge
  %44 = getelementptr inbounds nuw i8, ptr %0, i64 8
  %45 = load ptr, ptr %44, align 8, !tbaa !11
  %46 = tail call i32 @ossl_ackm_on_tx_packet(ptr noundef %45, ptr noundef %1) #5
  br label %.loopexit

.loopexit:                                        ; preds = %38, %32, %._crit_edge57
  %.0 = phi i32 [ %46, %._crit_edge57 ], [ 0, %32 ], [ 0, %38 ]
  ret i32 %.0
}